target datalayout = "e-m:e-p270:32:32-p271:32:32-p272:64:64-i64:64-i128:128-f80:128-n8:16:32:64-S128"
target triple = "x86_64-pc-linux-gnu"

%struct.mlib_affine_param = type { ptr, ptr, ptr, ptr, ptr, ptr, ptr, ptr, ptr, i32, i32, i32, i32, i32, i32, i32, ptr, i32 }

; Function Attrs: nounwind uwtable
define hidden i32 @mlib_ImageAffine_d64_2ch_nn(ptr noundef %0) #0 {
  %2 = alloca ptr, align 8
  %3 = alloca ptr, align 8
  %4 = alloca ptr, align 8
  %5 = alloca ptr, align 8
  %6 = alloca ptr, align 8
  %7 = alloca ptr, align 8
  %8 = alloca ptr, align 8
  %9 = alloca i32, align 4
  %10 = alloca i32, align 4
  %11 = alloca i32, align 4
  %12 = alloca i32, align 4
  %13 = alloca i32, align 4
  %14 = alloca i32, align 4
  %15 = alloca i32, align 4
  %16 = alloca i32, align 4
  %17 = alloca i32, align 4
  %18 = alloca i32, align 4
  %19 = alloca ptr, align 8
  %20 = alloca ptr, align 8
  %21 = alloca ptr, align 8
  %22 = alloca ptr, align 8
  store ptr %0, ptr %2, align 8
  %23 = load ptr, ptr %2, align 8
  %24 = getelementptr inbounds %struct.mlib_affine_param, ptr %23, i32 0, i32 5
  %25 = load ptr, ptr %24, align 8
  store ptr %25, ptr %3, align 8
  %26 = load ptr, ptr %2, align 8
  %27 = getelementptr inbounds %struct.mlib_affine_param, ptr %26, i32 0, i32 6
  %28 = load ptr, ptr %27, align 8
  store ptr %28, ptr %4, align 8
  %29 = load ptr, ptr %2, align 8
  %30 = getelementptr inbounds %struct.mlib_affine_param, ptr %29, i32 0, i32 7
  %31 = load ptr, ptr %30, align 8
  store ptr %31, ptr %5, align 8
  %32 = load ptr, ptr %2, align 8
  %33 = getelementptr inbounds %struct.mlib_affine_param, ptr %32, i32 0, i32 8
  %34 = load ptr, ptr %33, align 8
  store ptr %34, ptr %6, align 8
  %35 = load ptr, ptr %2, align 8
  %36 = getelementptr inbounds %struct.mlib_affine_param, ptr %35, i32 0, i32 4
  %37 = load ptr, ptr %36, align 8
  store ptr %37, ptr %7, align 8
  %38 = load ptr, ptr %2, align 8
  %39 = getelementptr inbounds %struct.mlib_affine_param, ptr %38, i32 0, i32 3
  %40 = load ptr, ptr %39, align 8
  store ptr %40, ptr %8, align 8
  %41 = load ptr, ptr %2, align 8
  %42 = getelementptr inbounds %struct.mlib_affine_param, ptr %41, i32 0, i32 15
  %43 = load i32, ptr %42, align 8
  store i32 %43, ptr %9, align 4
  %44 = load ptr, ptr %2, align 8
  %45 = getelementptr inbounds %struct.mlib_affine_param, ptr %44, i32 0, i32 9
  %46 = load i32, ptr %45, align 8
  store i32 %46, ptr %14, align 4
  %47 = load ptr, ptr %2, align 8
  %48 = getelementptr inbounds %struct.mlib_affine_param, ptr %47, i32 0, i32 10
  %49 = load i32, ptr %48, align 4
  store i32 %49, ptr %15, align 4
  %50 = load ptr, ptr %2, align 8
  %51 = getelementptr inbounds %struct.mlib_affine_param, ptr %50, i32 0, i32 11
  %52 = load i32, ptr %51, align 8
  store i32 %52, ptr %16, align 4
  %53 = load ptr, ptr %2, align 8
  %54 = getelementptr inbounds %struct.mlib_affine_param, ptr %53, i32 0, i32 12
  %55 = load i32, ptr %54, align 4
  store i32 %55, ptr %17, align 4
  %56 = load ptr, ptr %2, align 8
  %57 = getelementptr inbounds %struct.mlib_affine_param, ptr %56, i32 0, i32 16
  %58 = load ptr, ptr %57, align 8
  store ptr %58, ptr %19, align 8
  %59 = load i32, ptr %14, align 4
  store i32 %59, ptr %18, align 4
  br label %60

60:                                               ; preds = %158, %1
  %61 = load i32, ptr %18, align 4
  %62 = load i32, ptr %15, align 4
  %63 = icmp sle i32 %61, %62
  br i1 %63, label %64, label %161

64:                                               ; preds = %60
  %65 = load i32, ptr %9, align 4
  %66 = load ptr, ptr %7, align 8
  %67 = sext i32 %65 to i64
  %68 = getelementptr inbounds i8, ptr %66, i64 %67
  store ptr %68, ptr %7, align 8
  %69 = load ptr, ptr %3, align 8
  %70 = load i32, ptr %18, align 4
  %71 = sext i32 %70 to i64
  %72 = getelementptr inbounds i32, ptr %69, i64 %71
  %73 = load i32, ptr %72, align 4
  store i32 %73, ptr %10, align 4
  %74 = load ptr, ptr %4, align 8
  %75 = load i32, ptr %18, align 4
  %76 = sext i32 %75 to i64
  %77 = getelementptr inbounds i32, ptr %74, i64 %76
  %78 = load i32, ptr %77, align 4
  store i32 %78, ptr %11, align 4
  %79 = load ptr, ptr %5, align 8
  %80 = load i32, ptr %18, align 4
  %81 = sext i32 %80 to i64
  %82 = getelementptr inbounds i32, ptr %79, i64 %81
  %83 = load i32, ptr %82, align 4
  store i32 %83, ptr %12, align 4
  %84 = load ptr, ptr %6, align 8
  %85 = load i32, ptr %18, align 4
  %86 = sext i32 %85 to i64
  %87 = getelementptr inbounds i32, ptr %84, i64 %86
  %88 = load i32, ptr %87, align 4
  store i32 %88, ptr %13, align 4
  %89 = load ptr, ptr %19, align 8
  %90 = icmp ne ptr %89, null
  br i1 %90, label %91, label %105

91:                                               ; preds = %64
  %92 = load ptr, ptr %19, align 8
  %93 = load i32, ptr %18, align 4
  %94 = mul nsw i32 2, %93
  %95 = sext i32 %94 to i64
  %96 = getelementptr inbounds i32, ptr %92, i64 %95
  %97 = load i32, ptr %96, align 4
  store i32 %97, ptr %16, align 4
  %98 = load ptr, ptr %19, align 8
  %99 = load i32, ptr %18, align 4
  %100 = mul nsw i32 2, %99
  %101 = add nsw i32 %100, 1
  %102 = sext i32 %101 to i64
  %103 = getelementptr inbounds i32, ptr %98, i64 %102
  %104 = load i32, ptr %103, align 4
  store i32 %104, ptr %17, align 4
  br label %105

105:                                              ; preds = %91, %64
  %106 = load i32, ptr %10, align 4
  %107 = load i32, ptr %11, align 4
  %108 = icmp sgt i32 %106, %107
  br i1 %108, label %109, label %110

109:                                              ; preds = %105
  br label %158

110:                                              ; preds = %105
  %111 = load ptr, ptr %7, align 8
  %112 = load i32, ptr %10, align 4
  %113 = mul nsw i32 2, %112
  %114 = sext i32 %113 to i64
  %115 = getelementptr inbounds double, ptr %111, i64 %114
  store ptr %115, ptr %20, align 8
  %116 = load ptr, ptr %7, align 8
  %117 = load i32, ptr %11, align 4
  %118 = mul nsw i32 2, %117
  %119 = sext i32 %118 to i64
  %120 = getelementptr inbounds double, ptr %116, i64 %119
  store ptr %120, ptr %22, align 8
  br label %121

121:                                              ; preds = %154, %110
  %122 = load ptr, ptr %20, align 8
  %123 = load ptr, ptr %22, align 8
  %124 = icmp ule ptr %122, %123
  br i1 %124, label %125, label %157

125:                                              ; preds = %121
  %126 = load ptr, ptr %8, align 8
  %127 = load i32, ptr %13, align 4
  %128 = ashr i32 %127, 13
  %129 = and i32 %128, 262136
  %130 = sext i32 %129 to i64
  %131 = getelementptr inbounds i8, ptr %126, i64 %130
  %132 = load ptr, ptr %131, align 8
  %133 = load i32, ptr %12, align 4
  %134 = ashr i32 %133, 16
  %135 = mul nsw i32 2, %134
  %136 = sext i32 %135 to i64
  %137 = getelementptr inbounds double, ptr %132, i64 %136
  store ptr %137, ptr %21, align 8
  %138 = load ptr, ptr %21, align 8
  %139 = getelementptr inbounds double, ptr %138, i64 0
  %140 = load double, ptr %139, align 8
  %141 = load ptr, ptr %20, align 8
  %142 = getelementptr inbounds double, ptr %141, i64 0
  store double %140, ptr %142, align 8
  %143 = load ptr, ptr %21, align 8
  %144 = getelementptr inbounds double, ptr %143, i64 1
  %145 = load double, ptr %144, align 8
  %146 = load ptr, ptr %20, align 8
  %147 = getelementptr inbounds double, ptr %146, i64 1
  store double %145, ptr %147, align 8
  %148 = load i32, ptr %16, align 4
  %149 = load i32, ptr %12, align 4
  %150 = add nsw i32 %149, %148
  store i32 %150, ptr %12, align 4
  %151 = load i32, ptr %17, align 4
  %152 = load i32, ptr %13, align 4
  %153 = add nsw i32 %152, %151
  store i32 %153, ptr %13, align 4
  br label %154

154:                                              ; preds = %125
  %155 = load ptr, ptr %20, align 8
  %156 = getelementptr inbounds double, ptr %155, i64 2
  store ptr %156, ptr %20, align 8
  br label %121, !llvm.loop !17

157:                                              ; preds = %121
  br label %158

158:                                              ; preds = %157, %109
  %159 = load i32, ptr %18, align 4
  %160 = add nsw i32 %159, 1
  store i32 %160, ptr %18, align 4
  br label %60, !llvm.loop !18

161:                                              ; preds = %60
  ret i32 0
}