; Function Attrs: nofree norecurse nosync nounwind memory(readwrite, inaccessiblemem: none) uwtable
define hidden noundef i32 @mlib_ImageAffine_d64_2ch_nn(ptr nocapture noundef readonly %0) local_unnamed_addr #0 {
  %2 = getelementptr inbounds i8, ptr %0, i64 40
  %3 = load ptr, ptr %2, align 8
  %4 = getelementptr inbounds i8, ptr %0, i64 48
  %5 = load ptr, ptr %4, align 8
  %6 = getelementptr inbounds i8, ptr %0, i64 56
  %7 = load ptr, ptr %6, align 8
  %8 = getelementptr inbounds i8, ptr %0, i64 64
  %9 = load ptr, ptr %8, align 8
  %10 = getelementptr inbounds i8, ptr %0, i64 24
  %11 = load ptr, ptr %10, align 8
  %12 = getelementptr inbounds i8, ptr %0, i64 72
  %13 = load i32, ptr %12, align 8
  %14 = getelementptr inbounds i8, ptr %0, i64 76
  %15 = load i32, ptr %14, align 4
  %16 = getelementptr inbounds i8, ptr %0, i64 80
  %17 = load i32, ptr %16, align 8
  %18 = getelementptr inbounds i8, ptr %0, i64 84
  %19 = load i32, ptr %18, align 4
  %20 = getelementptr inbounds i8, ptr %0, i64 104
  %21 = load ptr, ptr %20, align 8
  %.not66 = icmp sgt i32 %13, %15
  br i1 %.not66, label %._crit_edge, label %.lr.ph71

.lr.ph71:                                         ; preds = %1
  %22 = getelementptr inbounds i8, ptr %0, i64 96
  %23 = load i32, ptr %22, align 8
  %24 = getelementptr inbounds i8, ptr %0, i64 32
  %25 = load ptr, ptr %24, align 8
  %26 = sext i32 %23 to i64
  %.not60 = icmp eq ptr %21, null
  %27 = sext i32 %13 to i64
  %28 = add i32 %15, 1
  br i1 %.not60, label %.lr.ph71.split.us, label %.lr.ph71.split

.lr.ph71.split.us:                                ; preds = %.lr.ph71, %.loopexit.us
  %indvars.iv74 = phi i64 [ %indvars.iv.next75, %.loopexit.us ], [ %27, %.lr.ph71 ]
  %.070.us = phi ptr [ %29, %.loopexit.us ], [ %25, %.lr.ph71 ]
  %29 = getelementptr inbounds i8, ptr %.070.us, i64 %26
  %30 = getelementptr inbounds i32, ptr %3, i64 %indvars.iv74
  %31 = load i32, ptr %30, align 4
  %32 = getelementptr inbounds i32, ptr %5, i64 %indvars.iv74
  %33 = load i32, ptr %32, align 4
  %34 = icmp sgt i32 %31, %33
  br i1 %34, label %.loopexit.us, label %.lr.ph.us.preheader

.lr.ph.us.preheader:                              ; preds = %.lr.ph71.split.us
  %35 = shl nsw i32 %33, 1
  %36 = sext i32 %35 to i64
  %37 = getelementptr inbounds double, ptr %29, i64 %36
  %38 = shl nsw i32 %31, 1
  %39 = sext i32 %38 to i64
  %40 = getelementptr inbounds double, ptr %29, i64 %39
  %41 = getelementptr inbounds i32, ptr %7, i64 %indvars.iv74
  %42 = load i32, ptr %41, align 4
  %43 = getelementptr inbounds i32, ptr %9, i64 %indvars.iv74
  %44 = load i32, ptr %43, align 4
  br label %.lr.ph.us

.lr.ph.us:                                        ; preds = %.lr.ph.us.preheader, %.lr.ph.us
  %.05065.us = phi i32 [ %58, %.lr.ph.us ], [ %42, %.lr.ph.us.preheader ]
  %.05164.us = phi ptr [ %60, %.lr.ph.us ], [ %40, %.lr.ph.us.preheader ]
  %.05263.us = phi i32 [ %59, %.lr.ph.us ], [ %44, %.lr.ph.us.preheader ]
  %45 = lshr i32 %.05263.us, 13
  %46 = and i32 %45, 262136
  %47 = zext nneg i32 %46 to i64
  %48 = getelementptr inbounds i8, ptr %11, i64 %47
  %49 = load ptr, ptr %48, align 8
  %50 = ashr i32 %.05065.us, 15
  %51 = and i32 %50, -2
  %52 = sext i32 %51 to i64
  %53 = getelementptr inbounds double, ptr %49, i64 %52
  %54 = load double, ptr %53, align 8
  store double %54, ptr %.05164.us, align 8
  %55 = getelementptr inbounds i8, ptr %53, i64 8
  %56 = load double, ptr %55, align 8
  %57 = getelementptr inbounds i8, ptr %.05164.us, i64 8
  store double %56, ptr %57, align 8
  %58 = add nsw i32 %.05065.us, %17
  %59 = add nsw i32 %.05263.us, %19
  %60 = getelementptr inbounds i8, ptr %.05164.us, i64 16
  %.not61.us = icmp ugt ptr %60, %37
  br i1 %.not61.us, label %.loopexit.us, label %.lr.ph.us, !llvm.loop !17

.loopexit.us:                                     ; preds = %.lr.ph.us, %.lr.ph71.split.us
  %indvars.iv.next75 = add nsw i64 %indvars.iv74, 1
  %lftr.wideiv77 = trunc i64 %indvars.iv.next75 to i32
  %exitcond78.not = icmp eq i32 %28, %lftr.wideiv77
  br i1 %exitcond78.not, label %._crit_edge, label %.lr.ph71.split.us, !llvm.loop !18

.lr.ph71.split:                                   ; preds = %.lr.ph71, %.loopexit
  %indvars.iv = phi i64 [ %indvars.iv.next, %.loopexit ], [ %27, %.lr.ph71 ]
  %.070 = phi ptr [ %61, %.loopexit ], [ %25, %.lr.ph71 ]
  %61 = getelementptr inbounds i8, ptr %.070, i64 %26
  %62 = getelementptr inbounds i32, ptr %3, i64 %indvars.iv
  %63 = load i32, ptr %62, align 4
  %64 = getelementptr inbounds i32, ptr %5, i64 %indvars.iv
  %65 = load i32, ptr %64, align 4
  %66 = shl nsw i64 %indvars.iv, 1
  %67 = getelementptr inbounds i32, ptr %21, i64 %66
  %68 = load i32, ptr %67, align 4
  %69 = or disjoint i64 %66, 1
  %70 = getelementptr inbounds i32, ptr %21, i64 %69
  %71 = load i32, ptr %70, align 4
  %72 = icmp sgt i32 %63, %65
  br i1 %72, label %.loopexit, label %.lr.ph.preheader

.lr.ph.preheader:                                 ; preds = %.lr.ph71.split
  %73 = shl nsw i32 %65, 1
  %74 = sext i32 %73 to i64
  %75 = getelementptr inbounds double, ptr %61, i64 %74
  %76 = shl nsw i32 %63, 1
  %77 = sext i32 %76 to i64
  %78 = getelementptr inbounds double, ptr %61, i64 %77
  %79 = getelementptr inbounds i32, ptr %7, i64 %indvars.iv
  %80 = load i32, ptr %79, align 4
  %81 = getelementptr inbounds i32, ptr %9, i64 %indvars.iv
  %82 = load i32, ptr %81, align 4
  br label %.lr.ph

.lr.ph:                                           ; preds = %.lr.ph.preheader, %.lr.ph
  %.05065 = phi i32 [ %96, %.lr.ph ], [ %80, %.lr.ph.preheader ]
  %.05164 = phi ptr [ %98, %.lr.ph ], [ %78, %.lr.ph.preheader ]
  %.05263 = phi i32 [ %97, %.lr.ph ], [ %82, %.lr.ph.preheader ]
  %83 = lshr i32 %.05263, 13
  %84 = and i32 %83, 262136
  %85 = zext nneg i32 %84 to i64
  %86 = getelementptr inbounds i8, ptr %11, i64 %85
  %87 = load ptr, ptr %86, align 8
  %88 = ashr i32 %.05065, 15
  %89 = and i32 %88, -2
  %90 = sext i32 %89 to i64
  %91 = getelementptr inbounds double, ptr %87, i64 %90
  %92 = load double, ptr %91, align 8
  store double %92, ptr %.05164, align 8
  %93 = getelementptr inbounds i8, ptr %91, i64 8
  %94 = load double, ptr %93, align 8
  %95 = getelementptr inbounds i8, ptr %.05164, i64 8
  store double %94, ptr %95, align 8
  %96 = add nsw i32 %.05065, %68
  %97 = add nsw i32 %.05263, %71
  %98 = getelementptr inbounds i8, ptr %.05164, i64 16
  %.not61 = icmp ugt ptr %98, %75
  br i1 %.not61, label %.loopexit, label %.lr.ph, !llvm.loop !17

.loopexit:                                        ; preds = %.lr.ph, %.lr.ph71.split
  %indvars.iv.next = add nsw i64 %indvars.iv, 1
  %lftr.wideiv = trunc i64 %indvars.iv.next to i32
  %exitcond.not = icmp eq i32 %28, %lftr.wideiv
  br i1 %exitcond.not, label %._crit_edge, label %.lr.ph71.split, !llvm.loop !18

._crit_edge:                                      ; preds = %.loopexit, %.loopexit.us, %1
  ret i32 0
}